; Function Attrs: nounwind uwtable
define i64 @evbuffer_get_contiguous_space(ptr noundef readonly captures(none) %0) local_unnamed_addr #1 {
  %2 = getelementptr inbounds nuw i8, ptr %0, i64 56
  %3 = load ptr, ptr %2, align 8
  %.not = icmp eq ptr %3, null
  br i1 %.not, label %7, label %4

4:                                                ; preds = %1
  %5 = load ptr, ptr getelementptr inbounds nuw (i8, ptr @evthread_lock_fns_, i64 24), align 8
  %6 = tail call i32 %5(i32 noundef 0, ptr noundef nonnull %3) #16
  br label %7

7:                                                ; preds = %4, %1
  %8 = load ptr, ptr %0, align 8
  %.not9 = icmp eq ptr %8, null
  br i1 %.not9, label %12, label %9

9:                                                ; preds = %7
  %10 = getelementptr inbounds nuw i8, ptr %8, i64 24
  %11 = load i64, ptr %10, align 8
  br label %12

12:                                               ; preds = %7, %9
  %13 = phi i64 [ %11, %9 ], [ 0, %7 ]
  %14 = load ptr, ptr %2, align 8
  %.not10 = icmp eq ptr %14, null
  br i1 %.not10, label %18, label %15

15:                                               ; preds = %12
  %16 = load ptr, ptr getelementptr inbounds nuw (i8, ptr @evthread_lock_fns_, i64 32), align 8
  %17 = tail call i32 %16(i32 noundef 0, ptr noundef nonnull %14) #16
  br label %18

18:                                               ; preds = %15, %12
  ret i64 %13
}